; ModuleID = 'source-C-CXX/26/804.c'
source_filename = "source-C-CXX/26/804.c"
target datalayout = "e-m:e-p270:32:32-p271:32:32-p272:64:64-i64:64-f80:128-n8:16:32:64-S128"
target triple = "x86_64-pc-linux-gnu"

@.str = private unnamed_addr constant [3 x i8] c"%d\00", align 1
@.str.1 = private unnamed_addr constant [12 x i8] c"%lf %lf %lf\00", align 1
@.str.2 = private unnamed_addr constant [33 x i8] c"x1=0.00000+%.5f;x2=0.00000+%.5f\0A\00", align 1
@.str.3 = private unnamed_addr constant [17 x i8] c"x1=%.5f;x2=%.5f\0A\00", align 1
@.str.4 = private unnamed_addr constant [35 x i8] c"x1=0.00000+%.5fi;x2=0.00000-%.5fi\0A\00", align 1
@.str.5 = private unnamed_addr constant [29 x i8] c"x1=%.5f+%.5fi;x2=%.5f-%.5fi\0A\00", align 1
@.str.6 = private unnamed_addr constant [29 x i8] c"x1=%.5f-%.5fi;x2=%.5f+%.5fi\0A\00", align 1
@.str.7 = private unnamed_addr constant [8 x i8] c"x1=x2=0\00", align 1
@.str.8 = private unnamed_addr constant [12 x i8] c"x1=x2=%.5f\0A\00", align 1

; Function Attrs: nofree nounwind sspstrong uwtable
define dso_local i32 @main() local_unnamed_addr #0 {
  %1 = alloca i32, align 4
  %2 = alloca double, align 8
  %3 = alloca double, align 8
  %4 = alloca double, align 8
  %5 = bitcast i32* %1 to i8*
  call void @llvm.lifetime.start.p0i8(i64 4, i8* nonnull %5) #4
  %6 = bitcast double* %2 to i8*
  call void @llvm.lifetime.start.p0i8(i64 8, i8* nonnull %6) #4
  %7 = bitcast double* %3 to i8*
  call void @llvm.lifetime.start.p0i8(i64 8, i8* nonnull %7) #4
  %8 = bitcast double* %4 to i8*
  call void @llvm.lifetime.start.p0i8(i64 8, i8* nonnull %8) #4
  %9 = call i32 (i8*, ...) @__isoc99_scanf(i8* getelementptr inbounds ([3 x i8], [3 x i8]* @.str, i64 0, i64 0), i32* nonnull %1)
  %10 = load i32, i32* %1, align 4, !tbaa !5
  %11 = icmp slt i32 %10, 1
  br i1 %11, label %89, label %12

12:                                               ; preds = %0, %84
  %13 = phi i32 [ %86, %84 ], [ 1, %0 ]
  %14 = phi double [ %85, %84 ], [ undef, %0 ]
  %15 = call i32 (i8*, ...) @__isoc99_scanf(i8* getelementptr inbounds ([12 x i8], [12 x i8]* @.str.1, i64 0, i64 0), double* nonnull %2, double* nonnull %3, double* nonnull %4)
  %16 = load double, double* %3, align 8, !tbaa !9
  %17 = fmul double %16, %16
  %18 = load double, double* %2, align 8, !tbaa !9
  %19 = fmul double %18, 4.000000e+00
  %20 = load double, double* %4, align 8, !tbaa !9
  %21 = fmul double %19, %20
  %22 = fsub double %17, %21
  %23 = fcmp ogt double %22, 0.000000e+00
  br i1 %23, label %24, label %52

24:                                               ; preds = %12
  %25 = fcmp oeq double %16, 0.000000e+00
  %26 = call double @sqrt(double %22) #4
  br i1 %25, label %27, label %37

27:                                               ; preds = %24
  %28 = load double, double* %2, align 8, !tbaa !9
  %29 = fmul double %28, 2.000000e+00
  %30 = fdiv double %26, %29
  %31 = call double @sqrt(double %22) #4
  %32 = fneg double %31
  %33 = load double, double* %2, align 8, !tbaa !9
  %34 = fmul double %33, 2.000000e+00
  %35 = fdiv double %32, %34
  %36 = call i32 (i8*, ...) @printf(i8* nonnull dereferenceable(1) getelementptr inbounds ([33 x i8], [33 x i8]* @.str.2, i64 0, i64 0), double %30, double %35)
  br label %42

37:                                               ; preds = %24
  %38 = fsub double %26, %16
  %39 = load double, double* %2, align 8, !tbaa !9
  %40 = fmul double %39, 2.000000e+00
  %41 = fdiv double %38, %40
  br label %42

42:                                               ; preds = %37, %27
  %43 = phi double [ %14, %27 ], [ %41, %37 ]
  %44 = load double, double* %3, align 8, !tbaa !9
  %45 = fneg double %44
  %46 = call double @sqrt(double %22) #4
  %47 = fsub double %45, %46
  %48 = load double, double* %2, align 8, !tbaa !9
  %49 = fmul double %48, 2.000000e+00
  %50 = fdiv double %47, %49
  %51 = call i32 (i8*, ...) @printf(i8* nonnull dereferenceable(1) getelementptr inbounds ([17 x i8], [17 x i8]* @.str.3, i64 0, i64 0), double %43, double %50)
  br label %84

52:                                               ; preds = %12
  %53 = fcmp olt double %22, 0.000000e+00
  br i1 %53, label %54, label %73

54:                                               ; preds = %52
  %55 = fneg double %16
  %56 = fmul double %18, 2.000000e+00
  %57 = fdiv double %55, %56
  %58 = fneg double %22
  %59 = call double @sqrt(double %58) #4
  %60 = load double, double* %2, align 8, !tbaa !9
  %61 = fmul double %60, 2.000000e+00
  %62 = fdiv double %59, %61
  %63 = fcmp oeq double %57, 0.000000e+00
  br i1 %63, label %64, label %66

64:                                               ; preds = %54
  %65 = call i32 (i8*, ...) @printf(i8* nonnull dereferenceable(1) getelementptr inbounds ([35 x i8], [35 x i8]* @.str.4, i64 0, i64 0), double %62, double %62)
  br label %84

66:                                               ; preds = %54
  %67 = fcmp ogt double %62, 0.000000e+00
  br i1 %67, label %68, label %70

68:                                               ; preds = %66
  %69 = call i32 (i8*, ...) @printf(i8* nonnull dereferenceable(1) getelementptr inbounds ([29 x i8], [29 x i8]* @.str.5, i64 0, i64 0), double %57, double %62, double %57, double %62)
  br label %84

70:                                               ; preds = %66
  %71 = fneg double %62
  %72 = call i32 (i8*, ...) @printf(i8* nonnull dereferenceable(1) getelementptr inbounds ([29 x i8], [29 x i8]* @.str.6, i64 0, i64 0), double %57, double %71, double %57, double %71)
  br label %84

73:                                               ; preds = %52
  %74 = fcmp oeq double %16, 0.000000e+00
  br i1 %74, label %75, label %77

75:                                               ; preds = %73
  %76 = call i32 (i8*, ...) @printf(i8* nonnull dereferenceable(1) getelementptr inbounds ([8 x i8], [8 x i8]* @.str.7, i64 0, i64 0))
  br label %81

77:                                               ; preds = %73
  %78 = fneg double %16
  %79 = fmul double %18, 2.000000e+00
  %80 = fdiv double %78, %79
  br label %81

81:                                               ; preds = %77, %75
  %82 = phi double [ %14, %75 ], [ %80, %77 ]
  %83 = call i32 (i8*, ...) @printf(i8* nonnull dereferenceable(1) getelementptr inbounds ([12 x i8], [12 x i8]* @.str.8, i64 0, i64 0), double %82)
  br label %84

84:                                               ; preds = %42, %64, %70, %68, %81
  %85 = phi double [ %43, %42 ], [ %14, %64 ], [ %14, %68 ], [ %14, %70 ], [ %82, %81 ]
  %86 = add nuw nsw i32 %13, 1
  %87 = load i32, i32* %1, align 4, !tbaa !5
  %88 = icmp slt i32 %13, %87
  br i1 %88, label %12, label %89, !llvm.loop !11

89:                                               ; preds = %84, %0
  call void @llvm.lifetime.end.p0i8(i64 8, i8* nonnull %8) #4
  call void @llvm.lifetime.end.p0i8(i64 8, i8* nonnull %7) #4
  call void @llvm.lifetime.end.p0i8(i64 8, i8* nonnull %6) #4
  call void @llvm.lifetime.end.p0i8(i64 4, i8* nonnull %5) #4
  ret i32 0
}

; Function Attrs: argmemonly mustprogress nofree nosync nounwind willreturn
declare void @llvm.lifetime.start.p0i8(i64 immarg, i8* nocapture) #1

; Function Attrs: nofree nounwind
declare noundef i32 @__isoc99_scanf(i8* nocapture noundef readonly, ...) local_unnamed_addr #2

; Function Attrs: nofree nounwind
declare noundef i32 @printf(i8* nocapture noundef readonly, ...) local_unnamed_addr #2

; Function Attrs: mustprogress nofree nounwind willreturn
declare double @sqrt(double) local_unnamed_addr #3

; Function Attrs: argmemonly mustprogress nofree nosync nounwind willreturn
declare void @llvm.lifetime.end.p0i8(i64 immarg, i8* nocapture) #1


!llvm.module.flags = !{!0, !1, !2, !3}
!llvm.ident = !{!4}

!0 = !{i32 1, !"wchar_size", i32 4}
!1 = !{i32 7, !"PIC Level", i32 2}
!2 = !{i32 7, !"PIE Level", i32 2}
!3 = !{i32 7, !"uwtable", i32 1}
!4 = !{!"clang version 13.0.0"}
!5 = !{!6, !6, i64 0}
!6 = !{!"int", !7, i64 0}
!7 = !{!"omnipotent char", !8, i64 0}
!8 = !{!"Simple C/C++ TBAA"}
!9 = !{!10, !10, i64 0}
!10 = !{!"double", !7, i64 0}
!11 = distinct !{!11, !12}
!12 = !{!"llvm.loop.mustprogress"}
